target datalayout = "e-m:e-p270:32:32-p271:32:32-p272:64:64-i64:64-i128:128-f80:128-n8:16:32:64-S128"
target triple = "x86_64-pc-linux-gnu"

%class.b3Point2PointConstraint = type { %class.b3TypedConstraint, %class.b3Vector3, %class.b3Vector3, i32, float, float, %struct.b3ConstraintSetting, [8 x i8] }
%class.b3TypedConstraint = type { ptr, %struct.b3TypedObject, i32, %union.anon, float, i8, i8, i32, i32, i32, float, float, ptr }
%struct.b3TypedObject = type { i32 }
%union.anon = type { ptr }
%class.b3Vector3 = type { %union.anon.0 }
%union.anon.0 = type { [4 x float] }
%struct.b3ConstraintSetting = type { float, float, float }

; Function Attrs: mustprogress nounwind uwtable
define dso_local void @_ZN23b3Point2PointConstraint8setParamEifi(ptr noundef nonnull align 16 dereferenceable(120) %0, i32 noundef %1, float noundef %2, i32 noundef %3) unnamed_addr #3 align 2 {
  %5 = alloca ptr, align 8
  %6 = alloca i32, align 4
  %7 = alloca float, align 4
  %8 = alloca i32, align 4
  store ptr %0, ptr %5, align 8, !tbaa !4
  store i32 %1, ptr %6, align 4, !tbaa !9
  store float %2, ptr %7, align 4, !tbaa !44
  store i32 %3, ptr %8, align 4, !tbaa !9
  %9 = load ptr, ptr %5, align 8
  %10 = load i32, ptr %8, align 4, !tbaa !9
  %11 = icmp ne i32 %10, -1
  br i1 %11, label %12, label %13

12:                                               ; preds = %4
  br label %29

13:                                               ; preds = %4
  %14 = load i32, ptr %6, align 4, !tbaa !9
  switch i32 %14, label %27 [
    i32 1, label %15
    i32 2, label %15
    i32 3, label %21
    i32 4, label %21
  ]

15:                                               ; preds = %13, %13
  %16 = load float, ptr %7, align 4, !tbaa !44
  %17 = getelementptr inbounds nuw %class.b3Point2PointConstraint, ptr %9, i32 0, i32 4
  store float %16, ptr %17, align 4, !tbaa !55
  %18 = getelementptr inbounds nuw %class.b3Point2PointConstraint, ptr %9, i32 0, i32 3
  %19 = load i32, ptr %18, align 16, !tbaa !17
  %20 = or i32 %19, 1
  store i32 %20, ptr %18, align 16, !tbaa !17
  br label %28

21:                                               ; preds = %13, %13
  %22 = load float, ptr %7, align 4, !tbaa !44
  %23 = getelementptr inbounds nuw %class.b3Point2PointConstraint, ptr %9, i32 0, i32 5
  store float %22, ptr %23, align 8, !tbaa !61
  %24 = getelementptr inbounds nuw %class.b3Point2PointConstraint, ptr %9, i32 0, i32 3
  %25 = load i32, ptr %24, align 16, !tbaa !17
  %26 = or i32 %25, 2
  store i32 %26, ptr %24, align 16, !tbaa !17
  br label %28

27:                                               ; preds = %13
  br label %28

28:                                               ; preds = %27, %21, %15
  br label %29

29:                                               ; preds = %28, %12
  ret void
}