; Function Attrs: mustprogress nofree norecurse nosync nounwind willreturn memory(argmem: readwrite) uwtable
define dso_local void @_ZN23b3Point2PointConstraint8setParamEifi(ptr noundef nonnull align 16 captures(none) dereferenceable(120) %0, i32 noundef %1, float noundef %2, i32 noundef %3) unnamed_addr #8 align 2 {
  %.not = icmp eq i32 %3, -1
  br i1 %.not, label %5, label %13

5:                                                ; preds = %4
  switch i32 %1, label %13 [
    i32 1, label %6
    i32 2, label %6
    i32 3, label %8
    i32 4, label %8
  ]

6:                                                ; preds = %5, %5
  %7 = getelementptr inbounds nuw i8, ptr %0, i64 100
  store float %2, ptr %7, align 4, !tbaa !52
  br label %.sink.split

8:                                                ; preds = %5, %5
  %9 = getelementptr inbounds nuw i8, ptr %0, i64 104
  store float %2, ptr %9, align 8, !tbaa !43
  br label %.sink.split

.sink.split:                                      ; preds = %8, %6
  %.sink6 = phi i32 [ 1, %6 ], [ 2, %8 ]
  %10 = getelementptr inbounds nuw i8, ptr %0, i64 96
  %11 = load i32, ptr %10, align 16, !tbaa !10
  %12 = or i32 %11, %.sink6
  store i32 %12, ptr %10, align 16, !tbaa !10
  br label %13

13:                                               ; preds = %.sink.split, %5, %4
  ret void
}